; Function Attrs: nounwind uwtable
define ptr @ma_dr_mp3_open_file_and_read_pcm_frames_s16(ptr noundef captures(address_is_null) %0, ptr noundef captures(address_is_null) %1, ptr noundef captures(address_is_null) %2, ptr noundef captures(address_is_null) %3) local_unnamed_addr #7 {
  %5 = alloca %struct.ma_dr_mp3, align 8
  call void @llvm.lifetime.start.p0(i64 16064, ptr nonnull %5) #69
  %6 = call i32 @ma_dr_mp3_init_file(ptr noundef nonnull %5, ptr noundef %0, ptr noundef %3)
  %.not = icmp eq i32 %6, 0
  br i1 %.not, label %9, label %7

7:                                                ; preds = %4
  %8 = call fastcc ptr @ma_dr_mp3__full_read_and_close_s16(ptr noundef %5, ptr noundef %1, ptr noundef %2)
  br label %9

9:                                                ; preds = %4, %7
  %.0 = phi ptr [ %8, %7 ], [ null, %4 ]
  call void @llvm.lifetime.end.p0(i64 16064, ptr nonnull %5) #69
  ret ptr %.0
}